; Function Attrs: mustprogress uwtable
define hidden void @hb_buffer_set_message_func(ptr nocapture noundef %0, ptr noundef %1, ptr noundef %2, ptr noundef %3) local_unnamed_addr #5 {
  %5 = getelementptr inbounds i8, ptr %0, i64 4
  %6 = load atomic i32, ptr %5 monotonic, align 4
  %.not.i = icmp eq i32 %6, 0
  br i1 %.not.i, label %7, label %9

7:                                                ; preds = %4
  %.not20 = icmp eq ptr %3, null
  br i1 %.not20, label %20, label %8

8:                                                ; preds = %7
  tail call void %3(ptr noundef %2)
  br label %20

9:                                                ; preds = %4
  %10 = getelementptr inbounds i8, ptr %0, i64 208
  %11 = load ptr, ptr %10, align 8
  %.not = icmp eq ptr %11, null
  br i1 %.not, label %15, label %12

12:                                               ; preds = %9
  %13 = getelementptr inbounds i8, ptr %0, i64 200
  %14 = load ptr, ptr %13, align 8
  tail call void %11(ptr noundef %14)
  br label %15

15:                                               ; preds = %12, %9
  %.not19 = icmp eq ptr %1, null
  %16 = getelementptr inbounds i8, ptr %0, i64 192
  br i1 %.not19, label %19, label %17

17:                                               ; preds = %15
  store ptr %1, ptr %16, align 8
  %18 = getelementptr inbounds i8, ptr %0, i64 200
  store ptr %2, ptr %18, align 8
  store ptr %3, ptr %10, align 8
  br label %20

19:                                               ; preds = %15
  tail call void @llvm.memset.p0.i64(ptr noundef nonnull align 8 dereferenceable(24) %16, i8 0, i64 24, i1 false)
  br label %20

20:                                               ; preds = %7, %8, %19, %17
  ret void
}